target datalayout = "e-m:e-p270:32:32-p271:32:32-p272:64:64-i64:64-i128:128-f80:128-n8:16:32:64-S128"
target triple = "x86_64-pc-linux-gnu"

%"class.std::__cxx11::basic_string" = type { %"struct.std::__cxx11::basic_string<char>::_Alloc_hider", i64, %union.anon }
%"struct.std::__cxx11::basic_string<char>::_Alloc_hider" = type { ptr }
%union.anon = type { i64, [8 x i8] }
%struct.gmx_multisim_t = type { i32, i32, ptr, ptr }
%"class.std::filesystem::__cxx11::path" = type { %"class.std::__cxx11::basic_string", %"struct.std::filesystem::__cxx11::path::_List" }
%"struct.std::filesystem::__cxx11::path::_List" = type { %"class.std::unique_ptr.20" }
%"class.std::unique_ptr.20" = type { %"struct.std::__uniq_ptr_data.21" }
%"struct.std::__uniq_ptr_data.21" = type { %"class.std::__uniq_ptr_impl.22" }
%"class.std::__uniq_ptr_impl.22" = type { %"class.std::tuple.23" }
%"class.std::tuple.23" = type { %"struct.std::_Tuple_impl.24" }
%"struct.std::_Tuple_impl.24" = type { %"struct.std::_Head_base.27" }
%"struct.std::_Head_base.27" = type { ptr }

@.str.1 = private unnamed_addr constant [131 x i8] c"generated/home/dtcxzyw/WorkSpace/Projects/compilers/llvm-opt-benchmark/bench/gromacs/gromacs/src/gromacs/mdrunutility/multisim.cpp\00", align 1
@TMPI_INT64_T = external constant ptr, align 8
@.str.6 = private unnamed_addr constant [23 x i8] c"Multi-checking %s ... \00", align 1
@.str.7 = private unnamed_addr constant [57 x i8] c"check_multi_int called with a NULL communication pointer\00", align 1
@.str.8 = private unnamed_addr constant [5 x i8] c"ibuf\00", align 1
@.str.9 = private unnamed_addr constant [4 x i8] c"OK\0A\00", align 1
@.str.10 = private unnamed_addr constant [37 x i8] c"\0A%s is not equal for all subsystems\0A\00", align 1
@.str.12 = private unnamed_addr constant [38 x i8] c"The %d subsystems are not compatible\0A\00", align 1
@.str.13 = private unnamed_addr constant [21 x i8] c"  subsystem %%d: %s\0A\00", align 1
@.str.14 = private unnamed_addr constant [4 x i8] c"%ld\00", align 1

; Function Attrs: mustprogress uwtable
define internal void @_ZL14gmx_sfree_implIlEvPKcS1_iPT_(ptr noundef %0, ptr noundef %1, i32 noundef %2, ptr noundef %3) #0 {
  %5 = alloca ptr, align 8
  %6 = alloca ptr, align 8
  %7 = alloca i32, align 4
  %8 = alloca ptr, align 8
  store ptr %0, ptr %5, align 8
  store ptr %1, ptr %6, align 8
  store i32 %2, ptr %7, align 4
  store ptr %3, ptr %8, align 8
  %9 = load ptr, ptr %5, align 8
  %10 = load ptr, ptr %6, align 8
  %11 = load i32, ptr %7, align 4
  %12 = load ptr, ptr %8, align 8
  call void @_Z9save_freePKcS0_iPv(ptr noundef %9, ptr noundef %10, i32 noundef %11, ptr noundef %12)
  ret void
}

; Function Attrs: mustprogress uwtable
define void @_Z13gmx_sumli_simiPlPK14gmx_multisim_t(i32 noundef %0, ptr noundef %1, ptr noundef %2) #0 {
  %4 = alloca i32, align 4
  %5 = alloca ptr, align 8
  %6 = alloca ptr, align 8
  store i32 %0, ptr %4, align 4
  store ptr %1, ptr %5, align 8
  store ptr %2, ptr %6, align 8
  %7 = load ptr, ptr %5, align 8
  %8 = load i32, ptr %4, align 4
  %9 = load ptr, ptr @TMPI_INT64_T, align 8
  %10 = load ptr, ptr %6, align 8
  %11 = getelementptr inbounds %struct.gmx_multisim_t, ptr %10, i32 0, i32 2
  %12 = load ptr, ptr %11, align 8
  %13 = call noundef i32 @_Z14tMPI_AllreducePvS_iP14tmpi_datatype_7tMPI_OpP10tmpi_comm_(ptr noundef null, ptr noundef %7, i32 noundef %8, ptr noundef %9, i32 noundef 2, ptr noundef %12)
  ret void
}

; Function Attrs: mustprogress uwtable
define internal void @_ZL13gmx_snew_implIlEvPKcS1_iRPT_m(ptr noundef %0, ptr noundef %1, i32 noundef %2, ptr noundef nonnull align 8 dereferenceable(8) %3, i64 noundef %4) #0 {
  %6 = alloca ptr, align 8
  %7 = alloca ptr, align 8
  %8 = alloca i32, align 4
  %9 = alloca ptr, align 8
  %10 = alloca i64, align 8
  store ptr %0, ptr %6, align 8
  store ptr %1, ptr %7, align 8
  store i32 %2, ptr %8, align 4
  store ptr %3, ptr %9, align 8
  store i64 %4, ptr %10, align 8
  %11 = load ptr, ptr %6, align 8
  %12 = load ptr, ptr %7, align 8
  %13 = load i32, ptr %8, align 4
  %14 = load i64, ptr %10, align 8
  %15 = call noundef ptr @_Z11save_callocPKcS0_imm(ptr noundef %11, ptr noundef %12, i32 noundef %13, i64 noundef %14, i64 noundef 8)
  %16 = load ptr, ptr %9, align 8
  store ptr %15, ptr %16, align 8
  ret void
}

; Function Attrs: mustprogress uwtable
define void @_Z17check_multi_int64P8_IO_FILEPK14gmx_multisim_tlPKcb(ptr noundef %0, ptr noundef %1, i64 noundef %2, ptr noundef %3, i1 noundef zeroext %4) #0 personality ptr @__gxx_personality_v0 {
  %6 = alloca ptr, align 8
  %7 = alloca ptr, align 8
  %8 = alloca i64, align 8
  %9 = alloca ptr, align 8
  %10 = alloca i8, align 1
  %11 = alloca ptr, align 8
  %12 = alloca i32, align 4
  %13 = alloca i8, align 1
  %14 = alloca %"class.std::filesystem::__cxx11::path", align 8
  %15 = alloca ptr, align 8
  %16 = alloca i32, align 4
  %17 = alloca [255 x i8], align 16
  %18 = alloca %"class.std::filesystem::__cxx11::path", align 8
  store ptr %0, ptr %6, align 8
  store ptr %1, ptr %7, align 8
  store i64 %2, ptr %8, align 8
  store ptr %3, ptr %9, align 8
  %19 = zext i1 %4 to i8
  store i8 %19, ptr %10, align 1
  %20 = load ptr, ptr %6, align 8
  %21 = icmp ne ptr null, %20
  br i1 %21, label %22, label %29

22:                                               ; preds = %5
  %23 = load i8, ptr %10, align 1
  %24 = trunc i8 %23 to i1
  br i1 %24, label %29, label %25

25:                                               ; preds = %22
  %26 = load ptr, ptr %6, align 8
  %27 = load ptr, ptr %9, align 8
  %28 = call i32 (ptr, ptr, ...) @fprintf(ptr noundef %26, ptr noundef @.str.6, ptr noundef %27) #10
  br label %29

29:                                               ; preds = %25, %22, %5
  %30 = load ptr, ptr %7, align 8
  %31 = icmp eq ptr %30, null
  br i1 %31, label %32, label %38

32:                                               ; preds = %29
  call void @_ZNSt10filesystem7__cxx114pathC2IA131_cS1_EERKT_NS1_6formatE(ptr noundef nonnull align 8 dereferenceable(40) %14, ptr noundef nonnull align 1 dereferenceable(131) @.str.1, i8 noundef zeroext 2)
  invoke void (i32, ptr, i32, ptr, ...) @_Z9gmx_fataliRKNSt10filesystem7__cxx114pathEiPKcz(i32 noundef 0, ptr noundef nonnull align 8 dereferenceable(40) %14, i32 noundef 300, ptr noundef @.str.7) #11
          to label %33 unwind label %34

33:                                               ; preds = %32
  unreachable

34:                                               ; preds = %32
  %35 = landingpad { ptr, i32 }
          cleanup
  %36 = extractvalue { ptr, i32 } %35, 0
  store ptr %36, ptr %15, align 8
  %37 = extractvalue { ptr, i32 } %35, 1
  store i32 %37, ptr %16, align 4
  call void @_ZNSt10filesystem7__cxx114pathD2Ev(ptr noundef nonnull align 8 dereferenceable(40) %14) #10
  br label %136

38:                                               ; preds = %29
  %39 = load ptr, ptr %7, align 8
  %40 = getelementptr inbounds %struct.gmx_multisim_t, ptr %39, i32 0, i32 0
  %41 = load i32, ptr %40, align 8
  %42 = sext i32 %41 to i64
  call void @_ZL13gmx_snew_implIlEvPKcS1_iRPT_m(ptr noundef @.str.8, ptr noundef @.str.1, i32 noundef 303, ptr noundef nonnull align 8 dereferenceable(8) %11, i64 noundef %42)
  %43 = load i64, ptr %8, align 8
  %44 = load ptr, ptr %11, align 8
  %45 = load ptr, ptr %7, align 8
  %46 = getelementptr inbounds %struct.gmx_multisim_t, ptr %45, i32 0, i32 1
  %47 = load i32, ptr %46, align 4
  %48 = sext i32 %47 to i64
  %49 = getelementptr inbounds i64, ptr %44, i64 %48
  store i64 %43, ptr %49, align 8
  %50 = load ptr, ptr %7, align 8
  %51 = getelementptr inbounds %struct.gmx_multisim_t, ptr %50, i32 0, i32 0
  %52 = load i32, ptr %51, align 8
  %53 = load ptr, ptr %11, align 8
  %54 = load ptr, ptr %7, align 8
  call void @_Z13gmx_sumli_simiPlPK14gmx_multisim_t(i32 noundef %52, ptr noundef %53, ptr noundef %54)
  store i8 1, ptr %13, align 1
  store i32 1, ptr %12, align 4
  br label %55

55:                                               ; preds = %80, %38
  %56 = load i32, ptr %12, align 4
  %57 = load ptr, ptr %7, align 8
  %58 = getelementptr inbounds %struct.gmx_multisim_t, ptr %57, i32 0, i32 0
  %59 = load i32, ptr %58, align 8
  %60 = icmp slt i32 %56, %59
  br i1 %60, label %61, label %83

61:                                               ; preds = %55
  %62 = load i8, ptr %13, align 1
  %63 = trunc i8 %62 to i1
  br i1 %63, label %64, label %77

64:                                               ; preds = %61
  %65 = load ptr, ptr %11, align 8
  %66 = load i32, ptr %12, align 4
  %67 = sub nsw i32 %66, 1
  %68 = sext i32 %67 to i64
  %69 = getelementptr inbounds i64, ptr %65, i64 %68
  %70 = load i64, ptr %69, align 8
  %71 = load ptr, ptr %11, align 8
  %72 = load i32, ptr %12, align 4
  %73 = sext i32 %72 to i64
  %74 = getelementptr inbounds i64, ptr %71, i64 %73
  %75 = load i64, ptr %74, align 8
  %76 = icmp eq i64 %70, %75
  br label %77

77:                                               ; preds = %64, %61
  %78 = phi i1 [ false, %61 ], [ %76, %64 ]
  %79 = zext i1 %78 to i8
  store i8 %79, ptr %13, align 1
  br label %80

80:                                               ; preds = %77
  %81 = load i32, ptr %12, align 4
  %82 = add nsw i32 %81, 1
  store i32 %82, ptr %12, align 4
  br label %55, !llvm.loop !10

83:                                               ; preds = %55
  %84 = load i8, ptr %13, align 1
  %85 = trunc i8 %84 to i1
  br i1 %85, label %86, label %96

86:                                               ; preds = %83
  %87 = load ptr, ptr %6, align 8
  %88 = icmp ne ptr null, %87
  br i1 %88, label %89, label %95

89:                                               ; preds = %86
  %90 = load i8, ptr %10, align 1
  %91 = trunc i8 %90 to i1
  br i1 %91, label %95, label %92

92:                                               ; preds = %89
  %93 = load ptr, ptr %6, align 8
  %94 = call i32 (ptr, ptr, ...) @fprintf(ptr noundef %93, ptr noundef @.str.9) #10
  br label %95

95:                                               ; preds = %92, %89, %86
  br label %134

96:                                               ; preds = %83
  %97 = load ptr, ptr %6, align 8
  %98 = icmp ne ptr null, %97
  br i1 %98, label %99, label %125

99:                                               ; preds = %96
  %100 = load ptr, ptr %6, align 8
  %101 = load ptr, ptr %9, align 8
  %102 = call i32 (ptr, ptr, ...) @fprintf(ptr noundef %100, ptr noundef @.str.10, ptr noundef %101) #10
  store i32 0, ptr %12, align 4
  br label %103

103:                                              ; preds = %121, %99
  %104 = load i32, ptr %12, align 4
  %105 = load ptr, ptr %7, align 8
  %106 = getelementptr inbounds %struct.gmx_multisim_t, ptr %105, i32 0, i32 0
  %107 = load i32, ptr %106, align 8
  %108 = icmp slt i32 %104, %107
  br i1 %108, label %109, label %124

109:                                              ; preds = %103
  %110 = getelementptr inbounds [255 x i8], ptr %17, i64 0, i64 0
  %111 = call i32 (ptr, i64, ptr, ...) @snprintf(ptr noundef %110, i64 noundef 255, ptr noundef @.str.13, ptr noundef @.str.14) #10
  %112 = load ptr, ptr %6, align 8
  %113 = getelementptr inbounds [255 x i8], ptr %17, i64 0, i64 0
  %114 = load i32, ptr %12, align 4
  %115 = load ptr, ptr %11, align 8
  %116 = load i32, ptr %12, align 4
  %117 = sext i32 %116 to i64
  %118 = getelementptr inbounds i64, ptr %115, i64 %117
  %119 = load i64, ptr %118, align 8
  %120 = call i32 (ptr, ptr, ...) @fprintf(ptr noundef %112, ptr noundef %113, i32 noundef %114, i64 noundef %119) #10
  br label %121

121:                                              ; preds = %109
  %122 = load i32, ptr %12, align 4
  %123 = add nsw i32 %122, 1
  store i32 %123, ptr %12, align 4
  br label %103, !llvm.loop !11

124:                                              ; preds = %103
  br label %125

125:                                              ; preds = %124, %96
  call void @_ZNSt10filesystem7__cxx114pathC2IA131_cS1_EERKT_NS1_6formatE(ptr noundef nonnull align 8 dereferenceable(40) %18, ptr noundef nonnull align 1 dereferenceable(131) @.str.1, i8 noundef zeroext 2)
  %126 = load ptr, ptr %7, align 8
  %127 = getelementptr inbounds %struct.gmx_multisim_t, ptr %126, i32 0, i32 0
  %128 = load i32, ptr %127, align 8
  invoke void (i32, ptr, i32, ptr, ...) @_Z9gmx_fataliRKNSt10filesystem7__cxx114pathEiPKcz(i32 noundef 0, ptr noundef nonnull align 8 dereferenceable(40) %18, i32 noundef 335, ptr noundef @.str.12, i32 noundef %128) #11
          to label %129 unwind label %130

129:                                              ; preds = %125
  unreachable

130:                                              ; preds = %125
  %131 = landingpad { ptr, i32 }
          cleanup
  %132 = extractvalue { ptr, i32 } %131, 0
  store ptr %132, ptr %15, align 8
  %133 = extractvalue { ptr, i32 } %131, 1
  store i32 %133, ptr %16, align 4
  call void @_ZNSt10filesystem7__cxx114pathD2Ev(ptr noundef nonnull align 8 dereferenceable(40) %18) #10
  br label %136

134:                                              ; preds = %95
  %135 = load ptr, ptr %11, align 8
  call void @_ZL14gmx_sfree_implIlEvPKcS1_iPT_(ptr noundef @.str.8, ptr noundef @.str.1, i32 noundef 338, ptr noundef %135)
  ret void

136:                                              ; preds = %130, %34
  %137 = load ptr, ptr %15, align 8
  %138 = load i32, ptr %16, align 4
  %139 = insertvalue { ptr, i32 } poison, ptr %137, 0
  %140 = insertvalue { ptr, i32 } %139, i32 %138, 1
  resume { ptr, i32 } %140
}