; Function Attrs: mustprogress uwtable
define void @_Z17check_multi_int64P8_IO_FILEPK14gmx_multisim_tlPKcb(ptr noundef %0, ptr noundef readonly %1, i64 noundef %2, ptr noundef %3, i1 noundef zeroext %4) local_unnamed_addr #0 personality ptr @__gxx_personality_v0 {
  %6 = alloca %"class.std::filesystem::__cxx11::path", align 8
  %7 = alloca [255 x i8], align 16
  %8 = alloca %"class.std::filesystem::__cxx11::path", align 8
  %.not = icmp eq ptr %0, null
  %brmerge = or i1 %.not, %4
  br i1 %brmerge, label %11, label %9

9:                                                ; preds = %5
  %10 = tail call i32 (ptr, ptr, ...) @fprintf(ptr noundef nonnull %0, ptr noundef nonnull @.str.6, ptr noundef %3) #19
  br label %11

11:                                               ; preds = %5, %9
  %12 = icmp eq ptr %1, null
  br i1 %12, label %13, label %17

13:                                               ; preds = %11
  call void @_ZNSt10filesystem7__cxx114pathC2IA131_cS1_EERKT_NS1_6formatE(ptr noundef nonnull align 8 dereferenceable(40) %6, ptr noundef nonnull align 1 dereferenceable(131) @.str.1, i8 noundef zeroext 2)
  invoke void (i32, ptr, i32, ptr, ...) @_Z9gmx_fataliRKNSt10filesystem7__cxx114pathEiPKcz(i32 noundef 0, ptr noundef nonnull align 8 dereferenceable(40) %6, i32 noundef 300, ptr noundef nonnull @.str.7) #20
          to label %14 unwind label %15

14:                                               ; preds = %13
  unreachable

15:                                               ; preds = %13
  %16 = landingpad { ptr, i32 }
          cleanup
  br label %57

17:                                               ; preds = %11
  %18 = load i32, ptr %1, align 8
  %19 = sext i32 %18 to i64
  %20 = tail call noundef ptr @_Z11save_callocPKcS0_imm(ptr noundef nonnull @.str.8, ptr noundef nonnull @.str.1, i32 noundef 303, i64 noundef %19, i64 noundef 8)
  %21 = getelementptr inbounds i8, ptr %1, i64 4
  %22 = load i32, ptr %21, align 4
  %23 = sext i32 %22 to i64
  %24 = getelementptr inbounds i64, ptr %20, i64 %23
  store i64 %2, ptr %24, align 8
  %25 = load i32, ptr %1, align 8
  %26 = load ptr, ptr @TMPI_INT64_T, align 8
  %27 = getelementptr inbounds i8, ptr %1, i64 8
  %28 = load ptr, ptr %27, align 8
  %29 = tail call noundef i32 @_Z14tMPI_AllreducePvS_iP14tmpi_datatype_7tMPI_OpP10tmpi_comm_(ptr noundef null, ptr noundef %20, i32 noundef %25, ptr noundef %26, i32 noundef 2, ptr noundef %28)
  %30 = load i32, ptr %1, align 8
  %31 = icmp sgt i32 %30, 1
  br i1 %31, label %.lr.ph.preheader, label %.critedge

.lr.ph.preheader:                                 ; preds = %17
  %wide.trip.count = zext nneg i32 %30 to i64
  br label %.lr.ph

.lr.ph:                                           ; preds = %.lr.ph.backedge, %.lr.ph.preheader
  %indvars.iv = phi i64 [ 1, %.lr.ph.preheader ], [ %indvars.iv.be, %.lr.ph.backedge ]
  %.03244 = phi i1 [ true, %.lr.ph.preheader ], [ %.03244.be, %.lr.ph.backedge ]
  br i1 %.03244, label %32, label %.thread

32:                                               ; preds = %.lr.ph
  %33 = getelementptr i64, ptr %20, i64 %indvars.iv
  %34 = getelementptr i8, ptr %33, i64 -8
  %35 = load i64, ptr %34, align 8
  %36 = load i64, ptr %33, align 8
  %37 = icmp eq i64 %35, %36
  %indvars.iv.next = add nuw nsw i64 %indvars.iv, 1
  %exitcond.not = icmp eq i64 %indvars.iv.next, %wide.trip.count
  br i1 %exitcond.not, label %._crit_edge, label %.lr.ph.backedge

.lr.ph.backedge:                                  ; preds = %32, %.thread
  %indvars.iv.be = phi i64 [ %indvars.iv.next, %32 ], [ %indvars.iv.next51, %.thread ]
  %.03244.be = phi i1 [ %37, %32 ], [ false, %.thread ]
  br label %.lr.ph, !llvm.loop !9

.thread:                                          ; preds = %.lr.ph
  %indvars.iv.next51 = add nuw nsw i64 %indvars.iv, 1
  %exitcond.not52 = icmp eq i64 %indvars.iv.next51, %wide.trip.count
  br i1 %exitcond.not52, label %._crit_edge.thread, label %.lr.ph.backedge

._crit_edge:                                      ; preds = %32
  br i1 %37, label %.critedge, label %._crit_edge.thread

.critedge:                                        ; preds = %17, %._crit_edge
  br i1 %brmerge, label %56, label %38

38:                                               ; preds = %.critedge
  %39 = tail call i64 @fwrite(ptr nonnull @.str.9, i64 3, i64 1, ptr nonnull %0)
  br label %56

._crit_edge.thread:                               ; preds = %.thread, %._crit_edge
  br i1 %.not, label %.loopexit, label %40

40:                                               ; preds = %._crit_edge.thread
  %41 = tail call i32 (ptr, ptr, ...) @fprintf(ptr noundef nonnull %0, ptr noundef nonnull @.str.10, ptr noundef %3) #19
  %42 = load i32, ptr %1, align 8
  %43 = icmp sgt i32 %42, 0
  br i1 %43, label %.lr.ph47, label %.loopexit

.lr.ph47:                                         ; preds = %40, %.lr.ph47
  %indvars.iv48 = phi i64 [ %indvars.iv.next49, %.lr.ph47 ], [ 0, %40 ]
  %44 = call i32 (ptr, i64, ptr, ...) @snprintf(ptr noundef nonnull dereferenceable(1) %7, i64 noundef 255, ptr noundef nonnull @.str.13, ptr noundef nonnull @.str.14) #19
  %45 = getelementptr inbounds i64, ptr %20, i64 %indvars.iv48
  %46 = load i64, ptr %45, align 8
  %47 = trunc nuw nsw i64 %indvars.iv48 to i32
  %48 = call i32 (ptr, ptr, ...) @fprintf(ptr noundef nonnull %0, ptr noundef nonnull %7, i32 noundef %47, i64 noundef %46) #19
  %indvars.iv.next49 = add nuw nsw i64 %indvars.iv48, 1
  %49 = load i32, ptr %1, align 8
  %50 = sext i32 %49 to i64
  %51 = icmp slt i64 %indvars.iv.next49, %50
  br i1 %51, label %.lr.ph47, label %.loopexit, !llvm.loop !10

.loopexit:                                        ; preds = %.lr.ph47, %40, %._crit_edge.thread
  call void @_ZNSt10filesystem7__cxx114pathC2IA131_cS1_EERKT_NS1_6formatE(ptr noundef nonnull align 8 dereferenceable(40) %8, ptr noundef nonnull align 1 dereferenceable(131) @.str.1, i8 noundef zeroext 2)
  %52 = load i32, ptr %1, align 8
  invoke void (i32, ptr, i32, ptr, ...) @_Z9gmx_fataliRKNSt10filesystem7__cxx114pathEiPKcz(i32 noundef 0, ptr noundef nonnull align 8 dereferenceable(40) %8, i32 noundef 335, ptr noundef nonnull @.str.12, i32 noundef %52) #20
          to label %53 unwind label %54

53:                                               ; preds = %.loopexit
  unreachable

54:                                               ; preds = %.loopexit
  %55 = landingpad { ptr, i32 }
          cleanup
  br label %57

56:                                               ; preds = %.critedge, %38
  tail call void @_Z9save_freePKcS0_iPv(ptr noundef nonnull @.str.8, ptr noundef nonnull @.str.1, i32 noundef 338, ptr noundef %20)
  ret void

57:                                               ; preds = %54, %15
  %.sink = phi ptr [ %8, %54 ], [ %6, %15 ]
  %.pn = phi { ptr, i32 } [ %55, %54 ], [ %16, %15 ]
  call void @_ZNSt10filesystem7__cxx114pathD2Ev(ptr noundef nonnull align 8 dereferenceable(40) %.sink) #19
  resume { ptr, i32 } %.pn
}